target datalayout = "e-m:e-p270:32:32-p271:32:32-p272:64:64-i64:64-i128:128-f80:128-n8:16:32:64-S128"
target triple = "x86_64-pc-linux-gnu"

%struct.VHeader_ = type { i32, i32, [0 x i8] }

; Function Attrs: nounwind uwtable
define dso_local ptr @concat_string_parts(ptr noundef %0) #0 {
  %2 = alloca i32, align 4
  %3 = alloca ptr, align 8
  %4 = alloca ptr, align 8
  %5 = alloca i32, align 4
  %6 = alloca ptr, align 8
  %7 = alloca ptr, align 8
  %8 = alloca ptr, align 8
  %9 = alloca i32, align 4
  %10 = alloca i32, align 4
  %11 = alloca i32, align 4
  %12 = alloca ptr, align 8
  %13 = alloca ptr, align 8
  %14 = alloca i32, align 4
  %15 = alloca i32, align 4
  %16 = alloca i32, align 4
  store ptr %0, ptr %8, align 8
  store i32 0, ptr %9, align 4
  store i32 0, ptr %10, align 4
  %17 = load ptr, ptr %8, align 8
  store ptr %17, ptr %3, align 8
  %18 = load ptr, ptr %3, align 8
  %19 = icmp ne ptr %18, null
  br i1 %19, label %21, label %20

20:                                               ; preds = %1
  store i32 0, ptr %2, align 4
  br label %26

21:                                               ; preds = %1
  %22 = load ptr, ptr %3, align 8
  store ptr %22, ptr %4, align 8
  %23 = load ptr, ptr %4, align 8
  %24 = getelementptr inbounds %struct.VHeader_, ptr %23, i64 -1
  %25 = load i32, ptr %24, align 4
  store i32 %25, ptr %2, align 4
  br label %26

26:                                               ; preds = %21, %20
  %27 = load i32, ptr %2, align 4
  store i32 %27, ptr %11, align 4
  br label %28

28:                                               ; preds = %44, %26
  %29 = load i32, ptr %10, align 4
  %30 = load i32, ptr %11, align 4
  %31 = icmp ult i32 %29, %30
  br i1 %31, label %32, label %47

32:                                               ; preds = %28
  %33 = load ptr, ptr %8, align 8
  %34 = load i32, ptr %10, align 4
  %35 = zext i32 %34 to i64
  %36 = getelementptr inbounds ptr, ptr %33, i64 %35
  %37 = load ptr, ptr %36, align 8
  %38 = call i64 @strlen(ptr noundef %37) #7
  %39 = add i64 %38, 1
  %40 = load i32, ptr %9, align 4
  %41 = zext i32 %40 to i64
  %42 = add i64 %41, %39
  %43 = trunc i64 %42 to i32
  store i32 %43, ptr %9, align 4
  br label %44

44:                                               ; preds = %32
  %45 = load i32, ptr %10, align 4
  %46 = add i32 %45, 1
  store i32 %46, ptr %10, align 4
  br label %28, !llvm.loop !7

47:                                               ; preds = %28
  %48 = load i32, ptr %9, align 4
  %49 = zext i32 %48 to i64
  %50 = call ptr @calloc_string(i64 noundef %49)
  store ptr %50, ptr %12, align 8
  %51 = load ptr, ptr %12, align 8
  store ptr %51, ptr %13, align 8
  store i32 0, ptr %14, align 4
  %52 = load ptr, ptr %8, align 8
  store ptr %52, ptr %6, align 8
  %53 = load ptr, ptr %6, align 8
  %54 = icmp ne ptr %53, null
  br i1 %54, label %56, label %55

55:                                               ; preds = %47
  store i32 0, ptr %5, align 4
  br label %61

56:                                               ; preds = %47
  %57 = load ptr, ptr %6, align 8
  store ptr %57, ptr %7, align 8
  %58 = load ptr, ptr %7, align 8
  %59 = getelementptr inbounds %struct.VHeader_, ptr %58, i64 -1
  %60 = load i32, ptr %59, align 4
  store i32 %60, ptr %5, align 4
  br label %61

61:                                               ; preds = %56, %55
  %62 = load i32, ptr %5, align 4
  store i32 %62, ptr %15, align 4
  br label %63

63:                                               ; preds = %89, %61
  %64 = load i32, ptr %14, align 4
  %65 = load i32, ptr %15, align 4
  %66 = icmp ult i32 %64, %65
  br i1 %66, label %67, label %92

67:                                               ; preds = %63
  %68 = load ptr, ptr %8, align 8
  %69 = load i32, ptr %14, align 4
  %70 = zext i32 %69 to i64
  %71 = getelementptr inbounds ptr, ptr %68, i64 %70
  %72 = load ptr, ptr %71, align 8
  %73 = call i64 @strlen(ptr noundef %72) #7
  %74 = trunc i64 %73 to i32
  store i32 %74, ptr %16, align 4
  %75 = load ptr, ptr %13, align 8
  %76 = load ptr, ptr %8, align 8
  %77 = load i32, ptr %14, align 4
  %78 = zext i32 %77 to i64
  %79 = getelementptr inbounds ptr, ptr %76, i64 %78
  %80 = load ptr, ptr %79, align 8
  %81 = load i32, ptr %16, align 4
  %82 = zext i32 %81 to i64
  call void @llvm.memcpy.p0.p0.i64(ptr align 1 %75, ptr align 1 %80, i64 %82, i1 false)
  %83 = load i32, ptr %16, align 4
  %84 = load ptr, ptr %13, align 8
  %85 = zext i32 %83 to i64
  %86 = getelementptr inbounds i8, ptr %84, i64 %85
  store ptr %86, ptr %13, align 8
  %87 = load ptr, ptr %13, align 8
  %88 = getelementptr inbounds i8, ptr %87, i32 1
  store ptr %88, ptr %13, align 8
  store i8 32, ptr %87, align 1
  br label %89

89:                                               ; preds = %67
  %90 = load i32, ptr %14, align 4
  %91 = add i32 %90, 1
  store i32 %91, ptr %14, align 4
  br label %63, !llvm.loop !9

92:                                               ; preds = %63
  %93 = load ptr, ptr %13, align 8
  %94 = getelementptr inbounds i8, ptr %93, i64 -1
  store i8 0, ptr %94, align 1
  %95 = load ptr, ptr %12, align 8
  ret ptr %95
}