; Function Attrs: nounwind uwtable
define dso_local ptr @concat_string_parts(ptr noundef readonly %0) local_unnamed_addr #0 {
  %.not = icmp eq ptr %0, null
  br i1 %.not, label %.thread57, label %2

2:                                                ; preds = %1
  %3 = getelementptr inbounds i8, ptr %0, i64 -8
  %4 = load i32, ptr %3, align 4
  %.not45 = icmp eq i32 %4, 0
  br i1 %.not45, label %13, label %.lr.ph.preheader

.lr.ph.preheader:                                 ; preds = %2
  %wide.trip.count = zext i32 %4 to i64
  br label %.lr.ph

.lr.ph:                                           ; preds = %.lr.ph.preheader, %.lr.ph
  %indvars.iv = phi i64 [ 0, %.lr.ph.preheader ], [ %indvars.iv.next, %.lr.ph ]
  %.03438 = phi i32 [ 0, %.lr.ph.preheader ], [ %10, %.lr.ph ]
  %5 = getelementptr inbounds ptr, ptr %0, i64 %indvars.iv
  %6 = load ptr, ptr %5, align 8
  %7 = tail call i64 @strlen(ptr noundef nonnull dereferenceable(1) %6) #13
  %8 = trunc i64 %7 to i32
  %9 = add i32 %.03438, 1
  %10 = add i32 %9, %8
  %indvars.iv.next = add nuw nsw i64 %indvars.iv, 1
  %exitcond.not = icmp eq i64 %indvars.iv.next, %wide.trip.count
  br i1 %exitcond.not, label %._crit_edge.loopexit, label %.lr.ph, !llvm.loop !7

._crit_edge.loopexit:                             ; preds = %.lr.ph
  %11 = zext i32 %10 to i64
  br label %13

.thread57:                                        ; preds = %1
  %12 = tail call ptr @calloc_string(i64 noundef 0) #11
  br label %._crit_edge43

13:                                               ; preds = %2, %._crit_edge.loopexit
  %.034.lcssa.ph = phi i64 [ %11, %._crit_edge.loopexit ], [ 0, %2 ]
  %14 = tail call ptr @calloc_string(i64 noundef %.034.lcssa.ph) #11
  %15 = getelementptr inbounds i8, ptr %0, i64 -8
  %16 = load i32, ptr %15, align 4
  %.not46 = icmp eq i32 %16, 0
  br i1 %.not46, label %._crit_edge43, label %.lr.ph42.preheader

.lr.ph42.preheader:                               ; preds = %13
  %wide.trip.count52 = zext i32 %16 to i64
  br label %.lr.ph42

.lr.ph42:                                         ; preds = %.lr.ph42.preheader, %.lr.ph42
  %indvars.iv49 = phi i64 [ 0, %.lr.ph42.preheader ], [ %indvars.iv.next50, %.lr.ph42 ]
  %.03339 = phi ptr [ %14, %.lr.ph42.preheader ], [ %22, %.lr.ph42 ]
  %17 = getelementptr inbounds ptr, ptr %0, i64 %indvars.iv49
  %18 = load ptr, ptr %17, align 8
  %19 = tail call i64 @strlen(ptr noundef nonnull dereferenceable(1) %18) #13
  %20 = and i64 %19, 4294967295
  tail call void @llvm.memcpy.p0.p0.i64(ptr align 1 %.03339, ptr align 1 %18, i64 %20, i1 false)
  %21 = getelementptr inbounds i8, ptr %.03339, i64 %20
  %22 = getelementptr inbounds i8, ptr %21, i64 1
  store i8 32, ptr %21, align 1
  %indvars.iv.next50 = add nuw nsw i64 %indvars.iv49, 1
  %exitcond53.not = icmp eq i64 %indvars.iv.next50, %wide.trip.count52
  br i1 %exitcond53.not, label %._crit_edge43, label %.lr.ph42, !llvm.loop !9

._crit_edge43:                                    ; preds = %.lr.ph42, %.thread57, %13
  %23 = phi ptr [ %14, %13 ], [ %12, %.thread57 ], [ %14, %.lr.ph42 ]
  %.033.lcssa = phi ptr [ %14, %13 ], [ %12, %.thread57 ], [ %22, %.lr.ph42 ]
  %24 = getelementptr inbounds i8, ptr %.033.lcssa, i64 -1
  store i8 0, ptr %24, align 1
  ret ptr %23
}